target datalayout = "e-m:e-p270:32:32-p271:32:32-p272:64:64-i64:64-i128:128-f80:128-n8:16:32:64-S128"
target triple = "x86_64-pc-linux-gnu"

%struct.UmbrellaOptions = type { ptr, ptr, ptr, ptr, i8, i8, float, float, float, i8, i32, i32, ptr, i32, float, float, float, float, float, i8, i8, i32, i8, float, i8, i8, i8, i8, i8, i32, ptr, i8, i8, float, i8, float, i8, i32, i32, float, i32, i32, i8, i8, ptr, ptr, double, double, double, i32, [4 x i8], %"class.gmx::ThreeFry2x64Fast", %"class.gmx::TabulatedNormalDistribution" }
%"class.gmx::ThreeFry2x64Fast" = type { %"class.gmx::ThreeFry2x64General.base", [4 x i8] }
%"class.gmx::ThreeFry2x64General.base" = type <{ %"struct.std::array", %"struct.std::array", %"struct.std::array", i32 }>
%"struct.std::array" = type { [2 x i64] }
%"class.gmx::TabulatedNormalDistribution" = type <{ %"class.gmx::TabulatedNormalDistribution<>::param_type", i64, i32, [4 x i8] }>
%"class.gmx::TabulatedNormalDistribution<>::param_type" = type { float, float }
%"class.std::filesystem::__cxx11::path" = type { %"class.std::__cxx11::basic_string", %"struct.std::filesystem::__cxx11::path::_List" }
%"class.std::__cxx11::basic_string" = type { %"struct.std::__cxx11::basic_string<char>::_Alloc_hider", i64, %union.anon.3 }
%"struct.std::__cxx11::basic_string<char>::_Alloc_hider" = type { ptr }
%union.anon.3 = type { i64, [8 x i8] }
%"struct.std::filesystem::__cxx11::path::_List" = type { %"class.std::unique_ptr" }
%"class.std::unique_ptr" = type { %"struct.std::__uniq_ptr_data" }
%"struct.std::__uniq_ptr_data" = type { %"class.std::__uniq_ptr_impl" }
%"class.std::__uniq_ptr_impl" = type { %"class.std::tuple" }
%"class.std::tuple" = type { %"struct.std::_Tuple_impl" }
%"struct.std::_Tuple_impl" = type { %"struct.std::_Head_base.5" }
%"struct.std::_Head_base.5" = type { ptr }

@.str.219 = private unnamed_addr constant [125 x i8] c"generated/home/dtcxzyw/WorkSpace/Projects/compilers/llvm-opt-benchmark/bench/gromacs/gromacs/src/gromacs/gmxana/gmx_wham.cpp\00", align 1
@.str.388 = private unnamed_addr constant [38 x i8] c"Sorry, I don't know this energy unit.\00", align 1

; Function Attrs: mustprogress uwtable
define internal void @_ZL27prof_normalization_and_unitPdP15UmbrellaOptions(ptr noundef %0, ptr noundef %1) #0 personality ptr @__gxx_personality_v0 {
  %3 = alloca ptr, align 8
  %4 = alloca ptr, align 8
  %5 = alloca i32, align 4
  %6 = alloca i32, align 4
  %7 = alloca i32, align 4
  %8 = alloca double, align 8
  %9 = alloca double, align 8
  %10 = alloca %"class.std::filesystem::__cxx11::path", align 8
  %11 = alloca ptr, align 8
  %12 = alloca i32, align 4
  store ptr %0, ptr %3, align 8
  store ptr %1, ptr %4, align 8
  store double 1.000000e+00, ptr %8, align 8
  %13 = load ptr, ptr %4, align 8
  %14 = getelementptr inbounds %struct.UmbrellaOptions, ptr %13, i32 0, i32 13
  %15 = load i32, ptr %14, align 8
  store i32 %15, ptr %6, align 4
  %16 = load ptr, ptr %4, align 8
  %17 = getelementptr inbounds %struct.UmbrellaOptions, ptr %16, i32 0, i32 20
  %18 = load i8, ptr %17, align 1
  %19 = trunc i8 %18 to i1
  br i1 %19, label %21, label %20

20:                                               ; preds = %2
  br label %142

21:                                               ; preds = %2
  %22 = load ptr, ptr %4, align 8
  %23 = getelementptr inbounds %struct.UmbrellaOptions, ptr %22, i32 0, i32 21
  %24 = load i32, ptr %23, align 4
  %25 = icmp eq i32 %24, 3
  br i1 %25, label %26, label %27

26:                                               ; preds = %21
  store double 1.000000e+00, ptr %8, align 8
  br label %57

27:                                               ; preds = %21
  %28 = load ptr, ptr %4, align 8
  %29 = getelementptr inbounds %struct.UmbrellaOptions, ptr %28, i32 0, i32 21
  %30 = load i32, ptr %29, align 4
  %31 = icmp eq i32 %30, 1
  br i1 %31, label %32, label %38

32:                                               ; preds = %27
  %33 = load ptr, ptr %4, align 8
  %34 = getelementptr inbounds %struct.UmbrellaOptions, ptr %33, i32 0, i32 17
  %35 = load float, ptr %34, align 8
  %36 = fpext float %35 to double
  %37 = fmul double 0x3F81072C483AF26D, %36
  store double %37, ptr %8, align 8
  br label %56

38:                                               ; preds = %27
  %39 = load ptr, ptr %4, align 8
  %40 = getelementptr inbounds %struct.UmbrellaOptions, ptr %39, i32 0, i32 21
  %41 = load i32, ptr %40, align 4
  %42 = icmp eq i32 %41, 2
  br i1 %42, label %43, label %49

43:                                               ; preds = %38
  %44 = load ptr, ptr %4, align 8
  %45 = getelementptr inbounds %struct.UmbrellaOptions, ptr %44, i32 0, i32 17
  %46 = load float, ptr %45, align 8
  %47 = fpext float %46 to double
  %48 = fmul double 0x3F60477829A487D3, %47
  store double %48, ptr %8, align 8
  br label %55

49:                                               ; preds = %38
  call void @_ZNSt10filesystem7__cxx114pathC2IA125_cS1_EERKT_NS1_6formatE(ptr noundef nonnull align 8 dereferenceable(40) %10, ptr noundef nonnull align 1 dereferenceable(125) @.str.219, i8 noundef zeroext 2)
  invoke void (i32, ptr, i32, ptr, ...) @_Z9gmx_fataliRKNSt10filesystem7__cxx114pathEiPKcz(i32 noundef 0, ptr noundef nonnull align 8 dereferenceable(40) %10, i32 noundef 859, ptr noundef @.str.388) #17
          to label %50 unwind label %51

50:                                               ; preds = %49
  unreachable

51:                                               ; preds = %49
  %52 = landingpad { ptr, i32 }
          cleanup
  %53 = extractvalue { ptr, i32 } %52, 0
  store ptr %53, ptr %11, align 8
  %54 = extractvalue { ptr, i32 } %52, 1
  store i32 %54, ptr %12, align 4
  call void @_ZNSt10filesystem7__cxx114pathD2Ev(ptr noundef nonnull align 8 dereferenceable(40) %10) #2
  br label %143

55:                                               ; preds = %43
  br label %56

56:                                               ; preds = %55, %32
  br label %57

57:                                               ; preds = %56, %26
  store i32 0, ptr %5, align 4
  br label %58

58:                                               ; preds = %84, %57
  %59 = load i32, ptr %5, align 4
  %60 = load i32, ptr %6, align 4
  %61 = icmp slt i32 %59, %60
  br i1 %61, label %62, label %87

62:                                               ; preds = %58
  %63 = load ptr, ptr %3, align 8
  %64 = load i32, ptr %5, align 4
  %65 = sext i32 %64 to i64
  %66 = getelementptr inbounds double, ptr %63, i64 %65
  %67 = load double, ptr %66, align 8
  %68 = fcmp ogt double %67, 0.000000e+00
  br i1 %68, label %69, label %83

69:                                               ; preds = %62
  %70 = load ptr, ptr %3, align 8
  %71 = load i32, ptr %5, align 4
  %72 = sext i32 %71 to i64
  %73 = getelementptr inbounds double, ptr %70, i64 %72
  %74 = load double, ptr %73, align 8
  %75 = call double @log(double noundef %74) #2
  %76 = fneg double %75
  %77 = load double, ptr %8, align 8
  %78 = fmul double %76, %77
  %79 = load ptr, ptr %3, align 8
  %80 = load i32, ptr %5, align 4
  %81 = sext i32 %80 to i64
  %82 = getelementptr inbounds double, ptr %79, i64 %81
  store double %78, ptr %82, align 8
  br label %83

83:                                               ; preds = %69, %62
  br label %84

84:                                               ; preds = %83
  %85 = load i32, ptr %5, align 4
  %86 = add nsw i32 %85, 1
  store i32 %86, ptr %5, align 4
  br label %58, !llvm.loop !65

87:                                               ; preds = %58
  %88 = load ptr, ptr %4, align 8
  %89 = getelementptr inbounds %struct.UmbrellaOptions, ptr %88, i32 0, i32 24
  %90 = load i8, ptr %89, align 8
  %91 = trunc i8 %90 to i1
  br i1 %91, label %96, label %92

92:                                               ; preds = %87
  %93 = load ptr, ptr %3, align 8
  %94 = getelementptr inbounds double, ptr %93, i64 0
  %95 = load double, ptr %94, align 8
  store double %95, ptr %9, align 8
  br label %126

96:                                               ; preds = %87
  %97 = load ptr, ptr %4, align 8
  %98 = getelementptr inbounds %struct.UmbrellaOptions, ptr %97, i32 0, i32 23
  %99 = load float, ptr %98, align 4
  %100 = load ptr, ptr %4, align 8
  %101 = getelementptr inbounds %struct.UmbrellaOptions, ptr %100, i32 0, i32 14
  %102 = load float, ptr %101, align 4
  %103 = fsub float %99, %102
  %104 = load ptr, ptr %4, align 8
  %105 = getelementptr inbounds %struct.UmbrellaOptions, ptr %104, i32 0, i32 16
  %106 = load float, ptr %105, align 4
  %107 = fdiv float %103, %106
  %108 = fptosi float %107 to i32
  store i32 %108, ptr %7, align 4
  %109 = load i32, ptr %7, align 4
  %110 = icmp slt i32 %109, 0
  br i1 %110, label %111, label %112

111:                                              ; preds = %96
  store i32 0, ptr %7, align 4
  br label %120

112:                                              ; preds = %96
  %113 = load i32, ptr %7, align 4
  %114 = load i32, ptr %6, align 4
  %115 = icmp sge i32 %113, %114
  br i1 %115, label %116, label %119

116:                                              ; preds = %112
  %117 = load i32, ptr %6, align 4
  %118 = sub nsw i32 %117, 1
  store i32 %118, ptr %7, align 4
  br label %119

119:                                              ; preds = %116, %112
  br label %120

120:                                              ; preds = %119, %111
  %121 = load ptr, ptr %3, align 8
  %122 = load i32, ptr %7, align 4
  %123 = sext i32 %122 to i64
  %124 = getelementptr inbounds double, ptr %121, i64 %123
  %125 = load double, ptr %124, align 8
  store double %125, ptr %9, align 8
  br label %126

126:                                              ; preds = %120, %92
  store i32 0, ptr %5, align 4
  br label %127

127:                                              ; preds = %139, %126
  %128 = load i32, ptr %5, align 4
  %129 = load i32, ptr %6, align 4
  %130 = icmp slt i32 %128, %129
  br i1 %130, label %131, label %142

131:                                              ; preds = %127
  %132 = load double, ptr %9, align 8
  %133 = load ptr, ptr %3, align 8
  %134 = load i32, ptr %5, align 4
  %135 = sext i32 %134 to i64
  %136 = getelementptr inbounds double, ptr %133, i64 %135
  %137 = load double, ptr %136, align 8
  %138 = fsub double %137, %132
  store double %138, ptr %136, align 8
  br label %139

139:                                              ; preds = %131
  %140 = load i32, ptr %5, align 4
  %141 = add nsw i32 %140, 1
  store i32 %141, ptr %5, align 4
  br label %127, !llvm.loop !66

142:                                              ; preds = %127, %20
  ret void

143:                                              ; preds = %51
  %144 = load ptr, ptr %11, align 8
  %145 = load i32, ptr %12, align 4
  %146 = insertvalue { ptr, i32 } poison, ptr %144, 0
  %147 = insertvalue { ptr, i32 } %146, i32 %145, 1
  resume { ptr, i32 } %147
}