; Function Attrs: mustprogress uwtable
define internal fastcc void @_ZL27prof_normalization_and_unitPdP15UmbrellaOptions(ptr nocapture noundef %0) unnamed_addr #0 personality ptr @__gxx_personality_v0 {
  %2 = alloca %"class.std::filesystem::__cxx11::path", align 8
  %3 = load i32, ptr getelementptr inbounds (%struct.UmbrellaOptions, ptr @_ZZ8gmx_whamiPPcE3opt, i64 0, i32 13), align 8
  %4 = load i8, ptr getelementptr inbounds (%struct.UmbrellaOptions, ptr @_ZZ8gmx_whamiPPcE3opt, i64 0, i32 20), align 1
  %5 = trunc i8 %4 to i1
  br i1 %5, label %6, label %.loopexit

6:                                                ; preds = %1
  %7 = load i32, ptr getelementptr inbounds (%struct.UmbrellaOptions, ptr @_ZZ8gmx_whamiPPcE3opt, i64 0, i32 21), align 4
  switch i32 %7, label %16 [
    i32 3, label %20
    i32 1, label %8
    i32 2, label %12
  ]

8:                                                ; preds = %6
  %9 = load float, ptr getelementptr inbounds (%struct.UmbrellaOptions, ptr @_ZZ8gmx_whamiPPcE3opt, i64 0, i32 17), align 8
  %10 = fpext float %9 to double
  %11 = fmul double %10, 0x3F81072C483AF26D
  br label %20

12:                                               ; preds = %6
  %13 = load float, ptr getelementptr inbounds (%struct.UmbrellaOptions, ptr @_ZZ8gmx_whamiPPcE3opt, i64 0, i32 17), align 8
  %14 = fpext float %13 to double
  %15 = fmul double %14, 0x3F60477829A487D3
  br label %20

16:                                               ; preds = %6
  call void @_ZNSt10filesystem7__cxx114pathC2IA125_cS1_EERKT_NS1_6formatE(ptr noundef nonnull align 8 dereferenceable(40) %2, ptr noundef nonnull align 1 dereferenceable(125) @.str.219, i8 noundef zeroext 2)
  invoke void (i32, ptr, i32, ptr, ...) @_Z9gmx_fataliRKNSt10filesystem7__cxx114pathEiPKcz(i32 noundef 0, ptr noundef nonnull align 8 dereferenceable(40) %2, i32 noundef 859, ptr noundef nonnull @.str.388) #25
          to label %17 unwind label %18

17:                                               ; preds = %16
  unreachable

18:                                               ; preds = %16
  %19 = landingpad { ptr, i32 }
          cleanup
  call void @_ZNSt10filesystem7__cxx114pathD2Ev(ptr noundef nonnull align 8 dereferenceable(40) %2) #20
  resume { ptr, i32 } %19

20:                                               ; preds = %6, %8, %12
  %.037 = phi double [ %11, %8 ], [ %15, %12 ], [ 1.000000e+00, %6 ]
  %21 = icmp sgt i32 %3, 0
  br i1 %21, label %.lr.ph.preheader, label %._crit_edge

.lr.ph.preheader:                                 ; preds = %20
  %wide.trip.count = zext nneg i32 %3 to i64
  br label %.lr.ph

.lr.ph:                                           ; preds = %.lr.ph.preheader, %29
  %indvars.iv = phi i64 [ 0, %.lr.ph.preheader ], [ %indvars.iv.next, %29 ]
  %22 = getelementptr inbounds double, ptr %0, i64 %indvars.iv
  %23 = load double, ptr %22, align 8
  %24 = fcmp ogt double %23, 0.000000e+00
  br i1 %24, label %25, label %29

25:                                               ; preds = %.lr.ph
  %26 = tail call double @log(double noundef %23) #20
  %27 = fneg double %26
  %28 = fmul double %.037, %27
  store double %28, ptr %22, align 8
  br label %29

29:                                               ; preds = %.lr.ph, %25
  %indvars.iv.next = add nuw nsw i64 %indvars.iv, 1
  %exitcond.not = icmp eq i64 %indvars.iv.next, %wide.trip.count
  br i1 %exitcond.not, label %._crit_edge, label %.lr.ph, !llvm.loop !78

._crit_edge:                                      ; preds = %29, %20
  %30 = load i8, ptr getelementptr inbounds (%struct.UmbrellaOptions, ptr @_ZZ8gmx_whamiPPcE3opt, i64 0, i32 24), align 8
  %31 = trunc i8 %30 to i1
  br i1 %31, label %32, label %43

32:                                               ; preds = %._crit_edge
  %33 = load float, ptr getelementptr inbounds (%struct.UmbrellaOptions, ptr @_ZZ8gmx_whamiPPcE3opt, i64 0, i32 23), align 4
  %34 = load float, ptr getelementptr inbounds (%struct.UmbrellaOptions, ptr @_ZZ8gmx_whamiPPcE3opt, i64 0, i32 14), align 4
  %35 = fsub float %33, %34
  %36 = load float, ptr getelementptr inbounds (%struct.UmbrellaOptions, ptr @_ZZ8gmx_whamiPPcE3opt, i64 0, i32 16), align 4
  %37 = fdiv float %35, %36
  %38 = fptosi float %37 to i32
  %39 = icmp slt i32 %38, 0
  %.not = icmp sgt i32 %3, %38
  %40 = add nsw i32 %3, -1
  %spec.select = select i1 %.not, i32 %38, i32 %40
  %.035 = select i1 %39, i32 0, i32 %spec.select
  %41 = sext i32 %.035 to i64
  %42 = getelementptr inbounds double, ptr %0, i64 %41
  br label %43

43:                                               ; preds = %._crit_edge, %32
  %.036.in = phi ptr [ %42, %32 ], [ %0, %._crit_edge ]
  %.036 = load double, ptr %.036.in, align 8
  br i1 %21, label %.lr.ph4.preheader, label %.loopexit

.lr.ph4.preheader:                                ; preds = %43
  %wide.trip.count9 = zext nneg i32 %3 to i64
  br label %.lr.ph4

.lr.ph4:                                          ; preds = %.lr.ph4.preheader, %.lr.ph4
  %indvars.iv6 = phi i64 [ 0, %.lr.ph4.preheader ], [ %indvars.iv.next7, %.lr.ph4 ]
  %44 = getelementptr inbounds double, ptr %0, i64 %indvars.iv6
  %45 = load double, ptr %44, align 8
  %46 = fsub double %45, %.036
  store double %46, ptr %44, align 8
  %indvars.iv.next7 = add nuw nsw i64 %indvars.iv6, 1
  %exitcond10.not = icmp eq i64 %indvars.iv.next7, %wide.trip.count9
  br i1 %exitcond10.not, label %.loopexit, label %.lr.ph4, !llvm.loop !79

.loopexit:                                        ; preds = %.lr.ph4, %43, %1
  ret void
}